(dp0
S'D001971-D051437'
p1
(lp2
(dp3
S'HOI_MESH'
p4
S'D051437'
p5
sS'chemical_RXNORM'
p6
NsS'url'
p7
Vhttp://bio2rdf.org/ctd_resource:D001971D051437
p8
sS'article'
p9
Vhttp://bio2rdf.org/pubmed:9861226
p10
sS'HOI_MEDDRA'
p11
S'TEST'
p12
sS'chemical_MESH'
p13
S'D001971'
p14
sS'dataSource'
p15
S'http://s4.semanticscience.org:14004/sparql'
p16
sS'label'
p17
Vassociation between Bromocriptine (D001971) and disease Renal Insufficiency (mesh:D051437) [ctd_resource:D001971D051437]
p18
sa(dp19
g4
g5
sg6
Nsg7
Vhttp://bio2rdf.org/ctd_resource:D001971D051437
p20
sg9
Vhttp://bio2rdf.org/pubmed:8606734
p21
sg11
g12
sg13
g14
sg15
g16
sg17
Vassociation between Bromocriptine (D001971) and disease Renal Insufficiency (mesh:D051437) [ctd_resource:D001971D051437]
p22
sasS'C049235-D051437'
p23
(lp24
(dp25
g4
g5
sg6
Nsg7
Vhttp://bio2rdf.org/ctd_resource:C049235D051437
p26
sg9
Vhttp://bio2rdf.org/pubmed:20842518
p27
sg11
g12
sg13
S'C049235'
p28
sg15
g16
sg17
Vassociation between 11-dehydro-thromboxane B2 (C049235) and disease Renal Insufficiency (mesh:D051437) [ctd_resource:C049235D051437]
p29
sas.